; Function Attrs: mustprogress uwtable
define hidden void @_Z13get_free_varsP4exprR10ptr_vectorI4sortE(ptr noundef %0, ptr noundef nonnull align 8 dereferenceable(8) %1) local_unnamed_addr #3 personality ptr @__gxx_personality_v0 {
  %3 = alloca %class.expr_sparse_mark, align 8
  %4 = alloca %class.ptr_vector.1, align 8
  call void @llvm.lifetime.start.p0(i64 24, ptr nonnull %3) #19
  %5 = tail call noalias noundef ptr @_ZN6memory8allocateEm(i64 noundef 64)
  tail call void @llvm.memset.p0.i64(ptr noundef nonnull align 8 dereferenceable(64) %5, i8 0, i64 64, i1 false), !tbaa !156
  store ptr %5, ptr %3, align 8, !tbaa !158
  %6 = getelementptr inbounds nuw i8, ptr %3, i64 8
  store i32 8, ptr %6, align 8, !tbaa !159
  %7 = getelementptr inbounds nuw i8, ptr %3, i64 12
  store i32 0, ptr %7, align 4, !tbaa !160
  %8 = getelementptr inbounds nuw i8, ptr %3, i64 16
  store i32 0, ptr %8, align 8, !tbaa !161
  call void @llvm.lifetime.start.p0(i64 8, ptr nonnull %4) #19
  store ptr null, ptr %4, align 8, !tbaa !43
  invoke fastcc void @_ZL20get_free_vars_offsetR16expr_sparse_markR10ptr_vectorI4exprEjPS2_RS1_I4sortE(ptr noundef nonnull align 8 dereferenceable(24) %3, ptr noundef nonnull align 8 dereferenceable(8) %4, i32 noundef 0, ptr noundef %0, ptr noundef nonnull align 8 dereferenceable(8) %1)
          to label %9 unwind label %22

9:                                                ; preds = %2
  %10 = load ptr, ptr %4, align 8, !tbaa !43
  %.not.i.i = icmp eq ptr %10, null
  br i1 %.not.i.i, label %_ZN6vectorIP4exprLb0EjED2Ev.exit, label %11

11:                                               ; preds = %9
  %12 = getelementptr inbounds i8, ptr %10, i64 -8
  invoke void @_ZN6memory10deallocateEPv(ptr noundef nonnull %12)
          to label %_ZN6vectorIP4exprLb0EjED2Ev.exit unwind label %13

13:                                               ; preds = %11
  %14 = landingpad { ptr, i32 }
          catch ptr null
  %15 = extractvalue { ptr, i32 } %14, 0
  call void @__clang_call_terminate(ptr %15) #20
  unreachable

_ZN6vectorIP4exprLb0EjED2Ev.exit:                 ; preds = %9, %11
  call void @llvm.lifetime.end.p0(i64 8, ptr nonnull %4) #19
  %16 = load ptr, ptr %3, align 8, !tbaa !158
  %17 = icmp eq ptr %16, null
  br i1 %17, label %_ZN16expr_sparse_markD2Ev.exit, label %18

18:                                               ; preds = %_ZN6vectorIP4exprLb0EjED2Ev.exit
  invoke void @_ZN6memory10deallocateEPv(ptr noundef nonnull %16)
          to label %_ZN16expr_sparse_markD2Ev.exit unwind label %19

19:                                               ; preds = %18
  %20 = landingpad { ptr, i32 }
          catch ptr null
  %21 = extractvalue { ptr, i32 } %20, 0
  call void @__clang_call_terminate(ptr %21) #20
  unreachable

_ZN16expr_sparse_markD2Ev.exit:                   ; preds = %_ZN6vectorIP4exprLb0EjED2Ev.exit, %18
  call void @llvm.lifetime.end.p0(i64 24, ptr nonnull %3) #19
  ret void

22:                                               ; preds = %2
  %23 = landingpad { ptr, i32 }
          cleanup
  call void @_ZN6vectorIP4exprLb0EjED2Ev(ptr noundef nonnull align 8 dereferenceable(8) %4) #19
  call void @llvm.lifetime.end.p0(i64 8, ptr nonnull %4) #19
  call void @_ZN16expr_sparse_markD2Ev(ptr noundef nonnull align 8 dereferenceable(24) %3) #19
  call void @llvm.lifetime.end.p0(i64 24, ptr nonnull %3) #19
  resume { ptr, i32 } %23
}